target datalayout = "e-m:e-p270:32:32-p271:32:32-p272:64:64-i64:64-i128:128-f80:128-n8:16:32:64-S128"
target triple = "x86_64-pc-linux-gnu"

%struct._object = type { %union.anon, ptr }
%union.anon = type { i64 }
%struct._odictobject = type { %struct.PyDictObject, ptr, ptr, ptr, i64, ptr, i64, ptr, ptr }
%struct.PyDictObject = type { %struct._object, i64, i64, ptr, ptr }
%struct._odictnode = type { ptr, i64, ptr, ptr }
%struct.anon = type { i32, i32 }

@PyExc_RuntimeError = external global ptr, align 8
@.str.11 = private unnamed_addr constant [37 x i8] c"OrderedDict mutated during iteration\00", align 1

; Function Attrs: alwaysinline nounwind uwtable
define internal i32 @_Py_IsImmortal(ptr noundef %0) #4 {
  %2 = alloca ptr, align 8
  store ptr %0, ptr %2, align 8, !tbaa !42
  %3 = load ptr, ptr %2, align 8, !tbaa !42
  %4 = getelementptr inbounds nuw %struct._object, ptr %3, i32 0, i32 0
  %5 = getelementptr inbounds nuw %struct.anon, ptr %4, i32 0, i32 0
  %6 = load i32, ptr %5, align 8, !tbaa !74
  %7 = icmp slt i32 %6, 0
  %8 = zext i1 %7 to i32
  ret i32 %8
}

; Function Attrs: alwaysinline nounwind uwtable
define internal void @Py_INCREF(ptr noundef %0) #4 {
  %2 = alloca ptr, align 8
  %3 = alloca i32, align 4
  %4 = alloca i32, align 4
  store ptr %0, ptr %2, align 8, !tbaa !42
  call void @llvm.lifetime.start.p0(i64 4, ptr %3) #7
  %5 = load ptr, ptr %2, align 8, !tbaa !42
  %6 = getelementptr inbounds nuw %struct._object, ptr %5, i32 0, i32 0
  %7 = getelementptr inbounds nuw %struct.anon, ptr %6, i32 0, i32 0
  %8 = load i32, ptr %7, align 8, !tbaa !74
  store i32 %8, ptr %3, align 4, !tbaa !43
  %9 = load i32, ptr %3, align 4, !tbaa !43
  %10 = icmp slt i32 %9, 0
  br i1 %10, label %11, label %12

11:                                               ; preds = %1
  store i32 1, ptr %4, align 4
  br label %18

12:                                               ; preds = %1
  %13 = load i32, ptr %3, align 4, !tbaa !43
  %14 = add i32 %13, 1
  %15 = load ptr, ptr %2, align 8, !tbaa !42
  %16 = getelementptr inbounds nuw %struct._object, ptr %15, i32 0, i32 0
  %17 = getelementptr inbounds nuw %struct.anon, ptr %16, i32 0, i32 0
  store i32 %14, ptr %17, align 8, !tbaa !74
  store i32 0, ptr %4, align 4
  br label %18

18:                                               ; preds = %12, %11
  call void @llvm.lifetime.end.p0(i64 4, ptr %3) #7
  %19 = load i32, ptr %4, align 4
  switch i32 %19, label %21 [
    i32 0, label %20
    i32 1, label %20
  ]

20:                                               ; preds = %18, %18
  ret void

21:                                               ; preds = %18
  unreachable
}

; Function Attrs: alwaysinline nounwind uwtable
define internal void @Py_DECREF(ptr noundef %0) #4 {
  %2 = alloca ptr, align 8
  store ptr %0, ptr %2, align 8, !tbaa !42
  %3 = load ptr, ptr %2, align 8, !tbaa !42
  %4 = call i32 @_Py_IsImmortal(ptr noundef %3)
  %5 = icmp ne i32 %4, 0
  br i1 %5, label %6, label %7

6:                                                ; preds = %1
  br label %16

7:                                                ; preds = %1
  %8 = load ptr, ptr %2, align 8, !tbaa !42
  %9 = getelementptr inbounds nuw %struct._object, ptr %8, i32 0, i32 0
  %10 = getelementptr inbounds nuw %struct.anon, ptr %9, i32 0, i32 0
  %11 = load i32, ptr %10, align 8, !tbaa !74
  %12 = add i32 %11, -1
  store i32 %12, ptr %10, align 8, !tbaa !74
  %13 = icmp eq i32 %12, 0
  br i1 %13, label %14, label %16

14:                                               ; preds = %7
  %15 = load ptr, ptr %2, align 8, !tbaa !42
  call void @_Py_Dealloc(ptr noundef %15)
  br label %16

16:                                               ; preds = %6, %14, %7
  ret void
}

; Function Attrs: inlinehint nounwind uwtable
define internal ptr @_Py_NewRef(ptr noundef %0) #3 {
  %2 = alloca ptr, align 8
  store ptr %0, ptr %2, align 8, !tbaa !42
  %3 = load ptr, ptr %2, align 8, !tbaa !42
  call void @Py_INCREF(ptr noundef %3)
  %4 = load ptr, ptr %2, align 8, !tbaa !42
  ret ptr %4
}

; Function Attrs: nounwind uwtable
define internal i32 @_odict_keys_equal(ptr noundef %0, ptr noundef %1) #0 {
  %3 = alloca i32, align 4
  %4 = alloca ptr, align 8
  %5 = alloca ptr, align 8
  %6 = alloca ptr, align 8
  %7 = alloca ptr, align 8
  %8 = alloca i64, align 8
  %9 = alloca i64, align 8
  %10 = alloca i32, align 4
  %11 = alloca ptr, align 8
  %12 = alloca ptr, align 8
  %13 = alloca i32, align 4
  store ptr %0, ptr %4, align 8, !tbaa !4
  store ptr %1, ptr %5, align 8, !tbaa !4
  call void @llvm.lifetime.start.p0(i64 8, ptr %6) #7
  call void @llvm.lifetime.start.p0(i64 8, ptr %7) #7
  call void @llvm.lifetime.start.p0(i64 8, ptr %8) #7
  %14 = load ptr, ptr %4, align 8, !tbaa !4
  %15 = getelementptr inbounds nuw %struct._odictobject, ptr %14, i32 0, i32 6
  %16 = load i64, ptr %15, align 8, !tbaa !73
  store i64 %16, ptr %8, align 8, !tbaa !55
  call void @llvm.lifetime.start.p0(i64 8, ptr %9) #7
  %17 = load ptr, ptr %5, align 8, !tbaa !4
  %18 = getelementptr inbounds nuw %struct._odictobject, ptr %17, i32 0, i32 6
  %19 = load i64, ptr %18, align 8, !tbaa !73
  store i64 %19, ptr %9, align 8, !tbaa !55
  %20 = load ptr, ptr %4, align 8, !tbaa !4
  %21 = getelementptr inbounds nuw %struct._odictobject, ptr %20, i32 0, i32 1
  %22 = load ptr, ptr %21, align 8, !tbaa !45
  store ptr %22, ptr %6, align 8, !tbaa !46
  %23 = load ptr, ptr %5, align 8, !tbaa !4
  %24 = getelementptr inbounds nuw %struct._odictobject, ptr %23, i32 0, i32 1
  %25 = load ptr, ptr %24, align 8, !tbaa !45
  store ptr %25, ptr %7, align 8, !tbaa !46
  br label %26

26:                                               ; preds = %90, %2
  br label %27

27:                                               ; preds = %26
  %28 = load ptr, ptr %6, align 8, !tbaa !46
  %29 = icmp eq ptr %28, null
  br i1 %29, label %30, label %34

30:                                               ; preds = %27
  %31 = load ptr, ptr %7, align 8, !tbaa !46
  %32 = icmp eq ptr %31, null
  br i1 %32, label %33, label %34

33:                                               ; preds = %30
  store i32 1, ptr %3, align 4
  store i32 1, ptr %10, align 4
  br label %91

34:                                               ; preds = %30, %27
  %35 = load ptr, ptr %6, align 8, !tbaa !46
  %36 = icmp eq ptr %35, null
  br i1 %36, label %40, label %37

37:                                               ; preds = %34
  %38 = load ptr, ptr %7, align 8, !tbaa !46
  %39 = icmp eq ptr %38, null
  br i1 %39, label %40, label %41

40:                                               ; preds = %37, %34
  store i32 0, ptr %3, align 4
  store i32 1, ptr %10, align 4
  br label %91

41:                                               ; preds = %37
  call void @llvm.lifetime.start.p0(i64 8, ptr %11) #7
  %42 = load ptr, ptr %6, align 8, !tbaa !46
  %43 = getelementptr inbounds nuw %struct._odictnode, ptr %42, i32 0, i32 0
  %44 = load ptr, ptr %43, align 8, !tbaa !47
  %45 = call ptr @_Py_NewRef(ptr noundef %44)
  store ptr %45, ptr %11, align 8, !tbaa !42
  call void @llvm.lifetime.start.p0(i64 8, ptr %12) #7
  %46 = load ptr, ptr %7, align 8, !tbaa !46
  %47 = getelementptr inbounds nuw %struct._odictnode, ptr %46, i32 0, i32 0
  %48 = load ptr, ptr %47, align 8, !tbaa !47
  %49 = call ptr @_Py_NewRef(ptr noundef %48)
  store ptr %49, ptr %12, align 8, !tbaa !42
  call void @llvm.lifetime.start.p0(i64 4, ptr %13) #7
  %50 = load ptr, ptr %11, align 8, !tbaa !42
  %51 = load ptr, ptr %12, align 8, !tbaa !42
  %52 = call i32 @PyObject_RichCompareBool(ptr noundef %50, ptr noundef %51, i32 noundef 2)
  store i32 %52, ptr %13, align 4, !tbaa !43
  %53 = load ptr, ptr %11, align 8, !tbaa !42
  call void @Py_DECREF(ptr noundef %53)
  %54 = load ptr, ptr %12, align 8, !tbaa !42
  call void @Py_DECREF(ptr noundef %54)
  %55 = load i32, ptr %13, align 4, !tbaa !43
  %56 = icmp slt i32 %55, 0
  br i1 %56, label %57, label %59

57:                                               ; preds = %41
  %58 = load i32, ptr %13, align 4, !tbaa !43
  store i32 %58, ptr %3, align 4
  store i32 1, ptr %10, align 4
  br label %86

59:                                               ; preds = %41
  %60 = load ptr, ptr %4, align 8, !tbaa !4
  %61 = getelementptr inbounds nuw %struct._odictobject, ptr %60, i32 0, i32 6
  %62 = load i64, ptr %61, align 8, !tbaa !73
  %63 = load i64, ptr %8, align 8, !tbaa !55
  %64 = icmp ne i64 %62, %63
  br i1 %64, label %71, label %65

65:                                               ; preds = %59
  %66 = load ptr, ptr %5, align 8, !tbaa !4
  %67 = getelementptr inbounds nuw %struct._odictobject, ptr %66, i32 0, i32 6
  %68 = load i64, ptr %67, align 8, !tbaa !73
  %69 = load i64, ptr %9, align 8, !tbaa !55
  %70 = icmp ne i64 %68, %69
  br i1 %70, label %71, label %73

71:                                               ; preds = %65, %59
  %72 = load ptr, ptr @PyExc_RuntimeError, align 8, !tbaa !42
  call void @PyErr_SetString(ptr noundef %72, ptr noundef @.str.11)
  store i32 -1, ptr %3, align 4
  store i32 1, ptr %10, align 4
  br label %86

73:                                               ; preds = %65
  %74 = load i32, ptr %13, align 4, !tbaa !43
  %75 = icmp eq i32 %74, 0
  br i1 %75, label %76, label %77

76:                                               ; preds = %73
  store i32 0, ptr %3, align 4
  store i32 1, ptr %10, align 4
  br label %86

77:                                               ; preds = %73
  br label %78

78:                                               ; preds = %77
  br label %79

79:                                               ; preds = %78
  %80 = load ptr, ptr %6, align 8, !tbaa !46
  %81 = getelementptr inbounds nuw %struct._odictnode, ptr %80, i32 0, i32 2
  %82 = load ptr, ptr %81, align 8, !tbaa !49
  store ptr %82, ptr %6, align 8, !tbaa !46
  %83 = load ptr, ptr %7, align 8, !tbaa !46
  %84 = getelementptr inbounds nuw %struct._odictnode, ptr %83, i32 0, i32 2
  %85 = load ptr, ptr %84, align 8, !tbaa !49
  store ptr %85, ptr %7, align 8, !tbaa !46
  store i32 0, ptr %10, align 4
  br label %86

86:                                               ; preds = %79, %76, %71, %57
  call void @llvm.lifetime.end.p0(i64 4, ptr %13) #7
  call void @llvm.lifetime.end.p0(i64 8, ptr %12) #7
  call void @llvm.lifetime.end.p0(i64 8, ptr %11) #7
  %87 = load i32, ptr %10, align 4
  switch i32 %87, label %91 [
    i32 0, label %88
  ]

88:                                               ; preds = %86
  br label %89

89:                                               ; preds = %88
  br label %90

90:                                               ; preds = %89
  br label %26

91:                                               ; preds = %86, %40, %33
  call void @llvm.lifetime.end.p0(i64 8, ptr %9) #7
  call void @llvm.lifetime.end.p0(i64 8, ptr %8) #7
  call void @llvm.lifetime.end.p0(i64 8, ptr %7) #7
  call void @llvm.lifetime.end.p0(i64 8, ptr %6) #7
  %92 = load i32, ptr %3, align 4
  ret i32 %92
}