; Function Attrs: nounwind uwtable
define internal fastcc range(i32 -2147483648, 2) i32 @_odict_keys_equal(ptr noundef readonly captures(none) %0, ptr noundef readonly captures(none) %1) unnamed_addr #0 {
  %3 = getelementptr inbounds nuw i8, ptr %0, i64 88
  %4 = load i64, ptr %3, align 8, !tbaa !47
  %5 = getelementptr inbounds nuw i8, ptr %1, i64 88
  %6 = load i64, ptr %5, align 8, !tbaa !47
  %7 = getelementptr inbounds nuw i8, ptr %0, i64 48
  %8 = getelementptr inbounds nuw i8, ptr %1, i64 48
  %.02743 = load ptr, ptr %7, align 8, !tbaa !50
  %.02944 = load ptr, ptr %8, align 8, !tbaa !50
  %9 = icmp eq ptr %.02743, null
  %10 = icmp eq ptr %.02944, null
  %or.cond45 = select i1 %9, i1 %10, i1 false
  br i1 %or.cond45, label %.thread, label %.lr.ph

.lr.ph:                                           ; preds = %2, %44
  %11 = phi i1 [ %48, %44 ], [ %10, %2 ]
  %12 = phi i1 [ %47, %44 ], [ %9, %2 ]
  %.02947 = phi ptr [ %.029, %44 ], [ %.02944, %2 ]
  %.02746 = phi ptr [ %.027, %44 ], [ %.02743, %2 ]
  %or.cond3 = select i1 %12, i1 true, i1 %11
  br i1 %or.cond3, label %.thread, label %13

13:                                               ; preds = %.lr.ph
  %14 = load ptr, ptr %.02746, align 8, !tbaa !44
  %15 = load i32, ptr %14, align 8, !tbaa !38
  %16 = icmp slt i32 %15, 0
  br i1 %16, label %_Py_NewRef.exit, label %17

17:                                               ; preds = %13
  %18 = add nuw i32 %15, 1
  store i32 %18, ptr %14, align 8, !tbaa !38
  br label %_Py_NewRef.exit

_Py_NewRef.exit:                                  ; preds = %13, %17
  %19 = load ptr, ptr %.02947, align 8, !tbaa !44
  %20 = load i32, ptr %19, align 8, !tbaa !38
  %21 = icmp slt i32 %20, 0
  br i1 %21, label %_Py_NewRef.exit38, label %22

22:                                               ; preds = %_Py_NewRef.exit
  %23 = add nuw i32 %20, 1
  store i32 %23, ptr %19, align 8, !tbaa !38
  br label %_Py_NewRef.exit38

_Py_NewRef.exit38:                                ; preds = %_Py_NewRef.exit, %22
  %24 = tail call i32 @PyObject_RichCompareBool(ptr noundef nonnull %14, ptr noundef nonnull %19, i32 noundef 2) #8
  %25 = load i32, ptr %14, align 8, !tbaa !38
  %.not.i35 = icmp sgt i32 %25, -1
  br i1 %.not.i35, label %26, label %Py_DECREF.exit36

26:                                               ; preds = %_Py_NewRef.exit38
  %27 = add nsw i32 %25, -1
  store i32 %27, ptr %14, align 8, !tbaa !38
  %28 = icmp eq i32 %27, 0
  br i1 %28, label %29, label %Py_DECREF.exit36

29:                                               ; preds = %26
  tail call void @_Py_Dealloc(ptr noundef nonnull %14) #8
  br label %Py_DECREF.exit36

Py_DECREF.exit36:                                 ; preds = %_Py_NewRef.exit38, %26, %29
  %30 = load i32, ptr %19, align 8, !tbaa !38
  %.not.i = icmp sgt i32 %30, -1
  br i1 %.not.i, label %31, label %Py_DECREF.exit

31:                                               ; preds = %Py_DECREF.exit36
  %32 = add nsw i32 %30, -1
  store i32 %32, ptr %19, align 8, !tbaa !38
  %33 = icmp eq i32 %32, 0
  br i1 %33, label %34, label %Py_DECREF.exit

34:                                               ; preds = %31
  tail call void @_Py_Dealloc(ptr noundef nonnull %19) #8
  br label %Py_DECREF.exit

Py_DECREF.exit:                                   ; preds = %Py_DECREF.exit36, %31, %34
  %35 = icmp slt i32 %24, 0
  br i1 %35, label %.thread, label %36

36:                                               ; preds = %Py_DECREF.exit
  %37 = load i64, ptr %3, align 8, !tbaa !47
  %.not = icmp eq i64 %37, %4
  br i1 %.not, label %38, label %40

38:                                               ; preds = %36
  %39 = load i64, ptr %5, align 8, !tbaa !47
  %.not34 = icmp eq i64 %39, %6
  br i1 %.not34, label %42, label %40

40:                                               ; preds = %38, %36
  %41 = load ptr, ptr @PyExc_RuntimeError, align 8, !tbaa !53
  tail call void @PyErr_SetString(ptr noundef %41, ptr noundef nonnull @.str.11) #8
  br label %.thread

42:                                               ; preds = %38
  %43 = icmp eq i32 %24, 0
  br i1 %43, label %.thread, label %44

44:                                               ; preds = %42
  %45 = getelementptr inbounds nuw i8, ptr %.02746, i64 16
  %46 = getelementptr inbounds nuw i8, ptr %.02947, i64 16
  %.027 = load ptr, ptr %45, align 8, !tbaa !50
  %.029 = load ptr, ptr %46, align 8, !tbaa !50
  %47 = icmp eq ptr %.027, null
  %48 = icmp eq ptr %.029, null
  %or.cond = select i1 %47, i1 %48, i1 false
  br i1 %or.cond, label %.thread, label %.lr.ph

.thread:                                          ; preds = %44, %.lr.ph, %Py_DECREF.exit, %42, %2, %40
  %.1 = phi i32 [ -1, %40 ], [ 1, %2 ], [ 1, %44 ], [ 0, %.lr.ph ], [ %24, %Py_DECREF.exit ], [ 0, %42 ]
  ret i32 %.1
}